; Function Attrs: mustprogress nounwind uwtable
define hidden void @_ZN19JvmtiEventCollector24setup_jvmti_thread_stateEv(ptr noundef nonnull align 8 dereferenceable(17) %0) local_unnamed_addr #1 align 2 {
  %2 = tail call align 8 ptr @llvm.threadlocal.address.p0(ptr align 8 @_ZN6Thread12_thr_currentE)
  %3 = load ptr, ptr %2, align 8
  %4 = getelementptr inbounds i8, ptr %3, i64 1536
  %5 = load ptr, ptr %4, align 8
  %6 = icmp eq ptr %5, null
  br i1 %6, label %7, label %_ZN16JvmtiThreadState9state_forEP10JavaThread6Handle.exit.thread

7:                                                ; preds = %1
  %8 = load ptr, ptr @JvmtiThreadState_lock, align 8
  %.not.i.i.i = icmp eq ptr %8, null
  br i1 %.not.i.i.i, label %_ZNK6HandleclEv.exit6.i, label %9

9:                                                ; preds = %7
  tail call void @_ZN5Mutex4lockEv(ptr noundef nonnull align 8 dereferenceable(104) %8) #19
  br label %_ZNK6HandleclEv.exit6.i

_ZNK6HandleclEv.exit6.i:                          ; preds = %7, %9
  %10 = tail call noundef ptr @_ZN16JvmtiThreadState22state_for_while_lockedEP10JavaThreadP7oopDesc(ptr noundef nonnull %3, ptr noundef null)
  tail call void @_ZN20JvmtiEventController25recompute_thread_filteredEP16JvmtiThreadState(ptr noundef %10) #19
  br i1 %.not.i.i.i, label %_ZN16JvmtiThreadState9state_forEP10JavaThread6Handle.exit, label %11

11:                                               ; preds = %_ZNK6HandleclEv.exit6.i
  tail call void @_ZN5Mutex6unlockEv(ptr noundef nonnull align 8 dereferenceable(104) %8) #19
  br label %_ZN16JvmtiThreadState9state_forEP10JavaThread6Handle.exit

_ZN16JvmtiThreadState9state_forEP10JavaThread6Handle.exit: ; preds = %_ZNK6HandleclEv.exit6.i, %11
  %.not = icmp eq ptr %10, null
  br i1 %.not, label %12, label %_ZN16JvmtiThreadState9state_forEP10JavaThread6Handle.exit.thread

12:                                               ; preds = %_ZN16JvmtiThreadState9state_forEP10JavaThread6Handle.exit
  %13 = load ptr, ptr @g_assert_poison, align 8
  store i8 88, ptr %13, align 1
  tail call void (ptr, i32, ptr, ptr, ...) @_Z15report_vm_errorPKciS0_S0_z(ptr noundef nonnull @.str.60, i32 noundef 2967, ptr noundef nonnull @.str.89, ptr noundef nonnull @.str.90) #20
  unreachable

_ZN16JvmtiThreadState9state_forEP10JavaThread6Handle.exit.thread: ; preds = %1, %_ZN16JvmtiThreadState9state_forEP10JavaThread6Handle.exit
  %.0.i17 = phi ptr [ %10, %_ZN16JvmtiThreadState9state_forEP10JavaThread6Handle.exit ], [ %5, %1 ]
  %14 = load ptr, ptr %0, align 8
  %15 = getelementptr inbounds i8, ptr %14, i64 8
  %16 = load ptr, ptr %15, align 8
  %17 = tail call noundef zeroext i1 %16(ptr noundef nonnull align 8 dereferenceable(17) %0) #19
  br i1 %17, label %18, label %25

18:                                               ; preds = %_ZN16JvmtiThreadState9state_forEP10JavaThread6Handle.exit.thread
  %19 = getelementptr inbounds i8, ptr %.0.i17, i64 120
  %20 = load ptr, ptr %19, align 8
  %.not14 = icmp eq ptr %20, null
  br i1 %.not14, label %.sink.split.sink.split, label %21

21:                                               ; preds = %18
  %22 = getelementptr inbounds i8, ptr %20, i64 32
  %23 = load i8, ptr %22, align 8
  %24 = trunc i8 %23 to i1
  br i1 %24, label %.sink.split.sink.split, label %43

25:                                               ; preds = %_ZN16JvmtiThreadState9state_forEP10JavaThread6Handle.exit.thread
  %26 = load ptr, ptr %0, align 8
  %27 = load ptr, ptr %26, align 8
  %28 = tail call noundef zeroext i1 %27(ptr noundef nonnull align 8 dereferenceable(17) %0) #19
  br i1 %28, label %29, label %32

29:                                               ; preds = %25
  %30 = getelementptr inbounds i8, ptr %.0.i17, i64 112
  %31 = load ptr, ptr %30, align 8
  br label %.sink.split.sink.split

32:                                               ; preds = %25
  %33 = load ptr, ptr %0, align 8
  %34 = getelementptr inbounds i8, ptr %33, i64 16
  %35 = load ptr, ptr %34, align 8
  %36 = tail call noundef zeroext i1 %35(ptr noundef nonnull align 8 dereferenceable(17) %0) #19
  br i1 %36, label %37, label %41

37:                                               ; preds = %32
  %38 = getelementptr inbounds i8, ptr %.0.i17, i64 128
  %39 = load ptr, ptr %38, align 8
  %.not13 = icmp eq ptr %39, null
  br i1 %.not13, label %.sink.split, label %43

.sink.split.sink.split:                           ; preds = %18, %21, %29
  %.sink18 = phi ptr [ %31, %29 ], [ %20, %21 ], [ %20, %18 ]
  %.sink.ph = phi ptr [ %30, %29 ], [ %19, %21 ], [ %19, %18 ]
  %40 = getelementptr inbounds i8, ptr %0, i64 8
  store ptr %.sink18, ptr %40, align 8
  br label %.sink.split

.sink.split:                                      ; preds = %.sink.split.sink.split, %37
  %.sink = phi ptr [ %38, %37 ], [ %.sink.ph, %.sink.split.sink.split ]
  store ptr %0, ptr %.sink, align 8
  br label %41

41:                                               ; preds = %.sink.split, %32
  %42 = getelementptr inbounds i8, ptr %0, i64 16
  store i8 1, ptr %42, align 8
  br label %43

43:                                               ; preds = %37, %21, %41
  ret void
}